; Function Attrs: inlinehint nounwind uwtable
define internal fastcc ptr @arena_choose(ptr noundef %0, ptr noundef readnone captures(address_is_null, ret: address, provenance) %1) unnamed_addr #16 {
  %.not.i = icmp eq ptr %1, null
  br i1 %.not.i, label %3, label %arena_choose_impl.exit

3:                                                ; preds = %2
  %4 = getelementptr inbounds nuw i8, ptr %0, i64 1
  %5 = load i8, ptr %4, align 1, !tbaa !143
  %6 = icmp sgt i8 %5, 0
  br i1 %6, label %7, label %12, !prof !144

7:                                                ; preds = %3
  %8 = load atomic i64, ptr @duckdb_je_arenas acquire, align 8
  %.0.i.i.i = inttoptr i64 %8 to ptr
  %9 = icmp eq i64 %8, 0
  br i1 %9, label %10, label %arena_choose_impl.exit, !prof !144

10:                                               ; preds = %7
  %11 = tail call ptr @duckdb_je_arena_init(ptr noundef nonnull %0, i32 noundef 0, ptr noundef nonnull @duckdb_je_arena_config_default) #18
  br label %arena_choose_impl.exit

12:                                               ; preds = %3
  %13 = getelementptr inbounds nuw i8, ptr %0, i64 144
  %14 = load ptr, ptr %13, align 8, !tbaa !167
  %15 = icmp eq ptr %14, null
  br i1 %15, label %16, label %arena_choose_impl.exit, !prof !144

16:                                               ; preds = %12
  %17 = tail call ptr @duckdb_je_arena_choose_hard(ptr noundef nonnull %0, i1 noundef zeroext false) #18
  %18 = load i8, ptr %0, align 1, !tbaa !141, !range !148, !noundef !149
  %19 = trunc nuw i8 %18 to i1
  br i1 %19, label %20, label %arena_choose_impl.exit

20:                                               ; preds = %16
  %21 = getelementptr inbounds nuw i8, ptr %0, i64 256
  %22 = getelementptr inbounds nuw i8, ptr %0, i64 864
  %23 = getelementptr inbounds nuw i8, ptr %0, i64 296
  %24 = load ptr, ptr %23, align 8, !tbaa !189
  %.not30.i = icmp eq ptr %24, null
  br i1 %.not30.i, label %27, label %25

25:                                               ; preds = %20
  %.not31.i = icmp eq ptr %24, %17
  br i1 %.not31.i, label %arena_choose_impl.exit, label %26

26:                                               ; preds = %25
  tail call void @duckdb_je_tcache_arena_reassociate(ptr noundef nonnull %0, ptr noundef nonnull %21, ptr noundef nonnull %22, ptr noundef %17) #18
  br label %arena_choose_impl.exit

27:                                               ; preds = %20
  tail call void @duckdb_je_tcache_arena_associate(ptr noundef nonnull %0, ptr noundef nonnull %21, ptr noundef nonnull %22, ptr noundef %17) #18
  br label %arena_choose_impl.exit

arena_choose_impl.exit:                           ; preds = %2, %7, %10, %12, %16, %25, %26, %27
  %.0.i = phi ptr [ %1, %2 ], [ %17, %16 ], [ %14, %12 ], [ %17, %25 ], [ %17, %26 ], [ %17, %27 ], [ %11, %10 ], [ %.0.i.i.i, %7 ]
  ret ptr %.0.i
}